(lp0
(dp1
(I1
I2
tp2
I3
s(I3
I2
tp3
I6
s(I1
I3
tp4
I4
s(I2
I3
tp5
I5
s(I3
I3
tp6
I8
s(I2
I2
tp7
I2
s(I3
I1
tp8
I7
s(I1
I1
tp9
S'B'
p10
s(I2
I1
tp11
I1
sa(dp12
g2
g10
sg3
I6
sg4
I4
sg6
I8
sg8
I7
sg11
I1
sg5
I5
sg7
I2
sg9
I3
sa(dp13
g2
I2
sg3
I6
sg4
I4
sg6
I8
sg8
I7
sg11
I1
sg5
I5
sg7
g10
sg9
I3
sa.